target datalayout = "e-m:e-p270:32:32-p271:32:32-p272:64:64-i64:64-i128:128-f80:128-n8:16:32:64-S128"
target triple = "x86_64-unknown-linux-gnu"

%"struct.std::atomic.12" = type { %"struct.std::__atomic_base.13" }
%"struct.std::__atomic_base.13" = type { i64 }
%"struct.std::atomic" = type { %"struct.std::__atomic_base" }
%"struct.std::__atomic_base" = type { i32 }
%"class.facebook::velox::cache::AsyncDataCache" = type <{ %"class.facebook::velox::memory::Cache", ptr, %"class.std::unique_ptr.16", %"class.std::vector.24", %"struct.std::atomic", [4 x i8], %"struct.std::atomic.12", %"struct.std::atomic.12", %"struct.std::atomic.12", %"struct.std::atomic.12", i64, %"struct.facebook::velox::cache::CacheStats", %"class.std::function", i32, %"struct.std::atomic.29", [2 x i8], %"struct.std::atomic", [4 x i8] }>
%"class.facebook::velox::memory::Cache" = type { ptr }
%"class.std::unique_ptr.16" = type { %"struct.std::__uniq_ptr_data.17" }
%"struct.std::__uniq_ptr_data.17" = type { %"class.std::__uniq_ptr_impl.18" }
%"class.std::__uniq_ptr_impl.18" = type { %"class.std::tuple.19" }
%"class.std::tuple.19" = type { %"struct.std::_Tuple_impl.20" }
%"struct.std::_Tuple_impl.20" = type { %"struct.std::_Head_base.23" }
%"struct.std::_Head_base.23" = type { ptr }
%"class.std::vector.24" = type { %"struct.std::_Vector_base.25" }
%"struct.std::_Vector_base.25" = type { %"struct.std::_Vector_base<std::unique_ptr<facebook::velox::cache::CacheShard>, std::allocator<std::unique_ptr<facebook::velox::cache::CacheShard>>>::_Vector_impl" }
%"struct.std::_Vector_base<std::unique_ptr<facebook::velox::cache::CacheShard>, std::allocator<std::unique_ptr<facebook::velox::cache::CacheShard>>>::_Vector_impl" = type { %"struct.std::_Vector_base<std::unique_ptr<facebook::velox::cache::CacheShard>, std::allocator<std::unique_ptr<facebook::velox::cache::CacheShard>>>::_Vector_impl_data" }
%"struct.std::_Vector_base<std::unique_ptr<facebook::velox::cache::CacheShard>, std::allocator<std::unique_ptr<facebook::velox::cache::CacheShard>>>::_Vector_impl_data" = type { ptr, ptr, ptr }
%"struct.facebook::velox::cache::CacheStats" = type { i64, i64, i64, i64, i32, i32, i32, i32, i32, i64, i64, i64, i64, i64, i64, i64, i64, i64, i64, i64, %"class.std::shared_ptr" }
%"class.std::shared_ptr" = type { %"class.std::__shared_ptr" }
%"class.std::__shared_ptr" = type { ptr, %"class.std::__shared_count" }
%"class.std::__shared_count" = type { ptr }
%"class.std::function" = type { %"class.std::_Function_base", ptr }
%"class.std::_Function_base" = type { %"union.std::_Any_data", ptr }
%"union.std::_Any_data" = type { %"union.std::_Nocopy_types" }
%"union.std::_Nocopy_types" = type { { i64, i64 } }
%"struct.std::atomic.29" = type { %"struct.std::__atomic_base.30" }
%"struct.std::__atomic_base.30" = type { i16 }
%"class.folly::detail::ScopeGuardImpl" = type { %"class.folly::detail::ScopeGuardImplBase", %class.anon.148 }
%"class.folly::detail::ScopeGuardImplBase" = type { i8 }
%class.anon.148 = type { ptr, ptr, ptr }

; Function Attrs: mustprogress nounwind uwtable
define linkonce_odr noundef i32 @_ZNSt13__atomic_baseIiEmmEv(ptr noundef nonnull align 4 dereferenceable(4) %this) #1 comdat align 2 {
entry:
  %this.addr = alloca ptr, align 8
  %.atomictmp = alloca i32, align 4
  %atomic-temp = alloca i32, align 4
  store ptr %this, ptr %this.addr, align 8
  %this1 = load ptr, ptr %this.addr, align 8
  %_M_i = getelementptr inbounds %"struct.std::__atomic_base", ptr %this1, i32 0, i32 0
  store i32 1, ptr %.atomictmp, align 4
  %0 = load i32, ptr %.atomictmp, align 4
  %1 = atomicrmw sub ptr %_M_i, i32 %0 seq_cst, align 4
  %2 = sub i32 %1, %0
  store i32 %2, ptr %atomic-temp, align 4
  %3 = load i32, ptr %atomic-temp, align 4
  ret i32 %3
}

; Function Attrs: noreturn nounwind uwtable
define linkonce_odr hidden void @__clang_call_terminate(ptr noundef %0) #3 comdat {
  %2 = call ptr @__cxa_begin_catch(ptr %0) #12
  call void @_ZSt9terminatev() #28
  unreachable
}

; Function Attrs: mustprogress uwtable
define internal void @"_ZZN8facebook5velox5cache14AsyncDataCache9makeSpaceEmSt8functionIFbRNS0_6memory10AllocationEEEENK3$_0clEv"(ptr noundef nonnull align 8 dereferenceable(24) %this) #0 align 2 {
entry:
  %this.addr = alloca ptr, align 8
  store ptr %this, ptr %this.addr, align 8
  %this1 = load ptr, ptr %this.addr, align 8
  %0 = getelementptr inbounds %class.anon.148, ptr %this1, i32 0, i32 0
  %1 = load ptr, ptr %0, align 8
  %allocator_ = getelementptr inbounds %"class.facebook::velox::cache::AsyncDataCache", ptr %1, i32 0, i32 1
  %2 = load ptr, ptr %allocator_, align 8
  %3 = getelementptr inbounds %class.anon.148, ptr %this1, i32 0, i32 1
  %4 = load ptr, ptr %3, align 8
  %vtable = load ptr, ptr %2, align 8
  %vfn = getelementptr inbounds ptr, ptr %vtable, i64 5
  %5 = load ptr, ptr %vfn, align 8
  %call = call noundef i64 %5(ptr noundef nonnull align 8 dereferenceable(880) %2, ptr noundef nonnull align 8 dereferenceable(36) %4)
  %6 = getelementptr inbounds %class.anon.148, ptr %this1, i32 0, i32 2
  %7 = load ptr, ptr %6, align 8
  %8 = load i8, ptr %7, align 1
  %tobool = trunc i8 %8 to i1
  br i1 %tobool, label %if.then, label %if.end

if.then:                                          ; preds = %entry
  %numThreadsInAllocate_ = getelementptr inbounds %"class.facebook::velox::cache::AsyncDataCache", ptr %1, i32 0, i32 16
  %call2 = call noundef i32 @_ZNSt13__atomic_baseIiEmmEv(ptr noundef nonnull align 4 dereferenceable(4) %numThreadsInAllocate_) #12
  br label %if.end

if.end:                                           ; preds = %if.then, %entry
  ret void
}

; Function Attrs: mustprogress nounwind uwtable
define internal void @"_ZN5folly6detail14ScopeGuardImplIZN8facebook5velox5cache14AsyncDataCache9makeSpaceEmSt8functionIFbRNS3_6memory10AllocationEEEE3$_0Lb1EE7executeEv"(ptr noundef nonnull align 8 dereferenceable(32) %this) #1 align 2 personality ptr @__gxx_personality_v0 {
entry:
  %f.addr.i = alloca ptr, align 8
  %t.addr.i = alloca ptr, align 8
  %c.addr.i = alloca ptr, align 8
  %exn.slot.i = alloca ptr, align 8
  %ehselector.slot.i = alloca i32, align 4
  %this.addr = alloca ptr, align 8
  %catcher_word = alloca i64, align 8
  %catcher = alloca ptr, align 8
  store ptr %this, ptr %this.addr, align 8
  %this1 = load ptr, ptr %this.addr, align 8
  store i64 ptrtoint (ptr @_ZN5folly6detail18ScopeGuardImplBase9terminateEv to i64), ptr %catcher_word, align 8
  %0 = load i64, ptr %catcher_word, align 8
  %1 = inttoptr i64 %0 to ptr
  store ptr %1, ptr %catcher, align 8
  %function_ = getelementptr inbounds %"class.folly::detail::ScopeGuardImpl", ptr %this1, i32 0, i32 1
  store ptr %function_, ptr %t.addr.i, align 8
  store ptr %catcher, ptr %c.addr.i, align 8
  %2 = load ptr, ptr %t.addr.i, align 8
  invoke void @"_ZZN8facebook5velox5cache14AsyncDataCache9makeSpaceEmSt8functionIFbRNS0_6memory10AllocationEEEENK3$_0clEv"(ptr noundef nonnull align 8 dereferenceable(24) %2)
          to label %invoke.cont.i unwind label %lpad.i

invoke.cont.i:                                    ; preds = %entry
  br label %"_ZN5folly15catch_exceptionIRZN8facebook5velox5cache14AsyncDataCache9makeSpaceEmSt8functionIFbRNS2_6memory10AllocationEEEE3$_0RPFvvEJEvEET2_OT_OT0_DpOT1_.exit"

lpad.i:                                           ; preds = %entry
  %3 = landingpad { ptr, i32 }
          catch ptr null
          catch ptr null
  %4 = extractvalue { ptr, i32 } %3, 0
  store ptr %4, ptr %exn.slot.i, align 8
  %5 = extractvalue { ptr, i32 } %3, 1
  store i32 %5, ptr %ehselector.slot.i, align 4
  %exn.i = load ptr, ptr %exn.slot.i, align 8
  %6 = call ptr @__cxa_begin_catch(ptr %exn.i) #12
  %7 = load ptr, ptr %c.addr.i, align 8
  store ptr %7, ptr %f.addr.i, align 8
  %8 = load ptr, ptr %f.addr.i, align 8
  %9 = load ptr, ptr %8, align 8
  invoke void %9()
          to label %_ZN5folly11invoke_coldIRPFvvEJES1_TnNSt9enable_ifIXsr3std11is_functionIT1_EE5valueEiE4typeELi0EvEET3_OT_DpOT0_.exit unwind label %lpad1.i

_ZN5folly11invoke_coldIRPFvvEJES1_TnNSt9enable_ifIXsr3std11is_functionIT1_EE5valueEiE4typeELi0EvEET3_OT_DpOT0_.exit: ; preds = %lpad.i
  br label %invoke.cont2.i

invoke.cont2.i:                                   ; preds = %_ZN5folly11invoke_coldIRPFvvEJES1_TnNSt9enable_ifIXsr3std11is_functionIT1_EE5valueEiE4typeELi0EvEET3_OT_DpOT0_.exit
  invoke void @__cxa_end_catch()
          to label %.noexc unwind label %terminate.lpad

.noexc:                                           ; preds = %invoke.cont2.i
  br label %"_ZN5folly15catch_exceptionIRZN8facebook5velox5cache14AsyncDataCache9makeSpaceEmSt8functionIFbRNS2_6memory10AllocationEEEE3$_0RPFvvEJEvEET2_OT_OT0_DpOT1_.exit"

lpad1.i:                                          ; preds = %lpad.i
  %10 = landingpad { ptr, i32 }
          cleanup
          catch ptr null
  %11 = extractvalue { ptr, i32 } %10, 0
  store ptr %11, ptr %exn.slot.i, align 8
  %12 = extractvalue { ptr, i32 } %10, 1
  store i32 %12, ptr %ehselector.slot.i, align 4
  invoke void @__cxa_end_catch()
          to label %invoke.cont3.i unwind label %terminate.lpad.i

invoke.cont3.i:                                   ; preds = %lpad1.i
  %exn4.i = load ptr, ptr %exn.slot.i, align 8
  %sel.i = load i32, ptr %ehselector.slot.i, align 4
  %lpad.val.i = insertvalue { ptr, i32 } poison, ptr %exn4.i, 0
  %lpad.val5.i = insertvalue { ptr, i32 } %lpad.val.i, i32 %sel.i, 1
  br label %terminate.lpad.body

terminate.lpad.i:                                 ; preds = %lpad1.i
  %13 = landingpad { ptr, i32 }
          catch ptr null
          catch ptr null
  %14 = extractvalue { ptr, i32 } %13, 0
  call void @__clang_call_terminate(ptr %14) #28
  unreachable

"_ZN5folly15catch_exceptionIRZN8facebook5velox5cache14AsyncDataCache9makeSpaceEmSt8functionIFbRNS2_6memory10AllocationEEEE3$_0RPFvvEJEvEET2_OT_OT0_DpOT1_.exit": ; preds = %.noexc, %invoke.cont.i
  br label %invoke.cont

invoke.cont:                                      ; preds = %"_ZN5folly15catch_exceptionIRZN8facebook5velox5cache14AsyncDataCache9makeSpaceEmSt8functionIFbRNS2_6memory10AllocationEEEE3$_0RPFvvEJEvEET2_OT_OT0_DpOT1_.exit"
  ret void

terminate.lpad:                                   ; preds = %invoke.cont2.i
  %15 = landingpad { ptr, i32 }
          catch ptr null
  br label %terminate.lpad.body

terminate.lpad.body:                              ; preds = %terminate.lpad, %invoke.cont3.i
  %eh.lpad-body = phi { ptr, i32 } [ %15, %terminate.lpad ], [ %lpad.val5.i, %invoke.cont3.i ]
  %16 = extractvalue { ptr, i32 } %eh.lpad-body, 0
  call void @__clang_call_terminate(ptr %16) #28
  unreachable
}

; Function Attrs: mustprogress nounwind uwtable
define internal void @"_ZN5folly6detail14ScopeGuardImplIZN8facebook5velox5cache14AsyncDataCache9makeSpaceEmSt8functionIFbRNS3_6memory10AllocationEEEE3$_0Lb1EED2Ev"(ptr noundef nonnull align 8 dereferenceable(32) %this) unnamed_addr #1 align 2 {
entry:
  %this.addr = alloca ptr, align 8
  store ptr %this, ptr %this.addr, align 8
  %this1 = load ptr, ptr %this.addr, align 8
  %dismissed_ = getelementptr inbounds %"class.folly::detail::ScopeGuardImplBase", ptr %this1, i32 0, i32 0
  %0 = load i8, ptr %dismissed_, align 8
  %tobool = trunc i8 %0 to i1
  br i1 %tobool, label %if.end, label %if.then

if.then:                                          ; preds = %entry
  call void @"_ZN5folly6detail14ScopeGuardImplIZN8facebook5velox5cache14AsyncDataCache9makeSpaceEmSt8functionIFbRNS3_6memory10AllocationEEEE3$_0Lb1EE7executeEv"(ptr noundef nonnull align 8 dereferenceable(32) %this1) #12
  br label %if.end

if.end:                                           ; preds = %if.then, %entry
  ret void
}