; Function Attrs: mustprogress nounwind uwtable
define internal fastcc void @"_ZN5folly6detail14ScopeGuardImplIZN8facebook5velox5cache14AsyncDataCache9makeSpaceEmSt8functionIFbRNS3_6memory10AllocationEEEE3$_0Lb1EED2Ev"(ptr nocapture noundef nonnull readonly align 8 dereferenceable(32) %this) unnamed_addr #0 align 2 personality ptr @__gxx_personality_v0 {
entry:
  %0 = load i8, ptr %this, align 8
  %1 = and i8 %0, 1
  %tobool.not = icmp eq i8 %1, 0
  br i1 %tobool.not, label %if.then, label %if.end

if.then:                                          ; preds = %entry
  %function_.i = getelementptr inbounds i8, ptr %this, i64 8
  %2 = load ptr, ptr %function_.i, align 8
  %allocator_.i.i = getelementptr inbounds i8, ptr %2, i64 8
  %3 = load ptr, ptr %allocator_.i.i, align 8
  %4 = getelementptr inbounds i8, ptr %this, i64 16
  %5 = load ptr, ptr %4, align 8
  %vtable.i.i = load ptr, ptr %3, align 8
  %vfn.i.i = getelementptr inbounds i8, ptr %vtable.i.i, i64 40
  %6 = load ptr, ptr %vfn.i.i, align 8
  %call.i1.i = invoke noundef i64 %6(ptr noundef nonnull align 8 dereferenceable(880) %3, ptr noundef nonnull align 8 dereferenceable(36) %5)
          to label %call.i.noexc.i unwind label %lpad.i.i

call.i.noexc.i:                                   ; preds = %if.then
  %7 = getelementptr inbounds i8, ptr %this, i64 24
  %8 = load ptr, ptr %7, align 8
  %9 = load i8, ptr %8, align 1
  %10 = and i8 %9, 1
  %tobool.not.i.i = icmp eq i8 %10, 0
  br i1 %tobool.not.i.i, label %if.end, label %if.then.i.i

if.then.i.i:                                      ; preds = %call.i.noexc.i
  %numThreadsInAllocate_.i.i = getelementptr inbounds i8, ptr %2, i64 296
  %11 = atomicrmw sub ptr %numThreadsInAllocate_.i.i, i32 1 seq_cst, align 4
  br label %if.end

lpad.i.i:                                         ; preds = %if.then
  %12 = landingpad { ptr, i32 }
          catch ptr null
  %13 = extractvalue { ptr, i32 } %12, 0
  %14 = tail call ptr @__cxa_begin_catch(ptr %13) #21
  tail call void @_ZN5folly6detail18ScopeGuardImplBase9terminateEv()
  unreachable

if.end:                                           ; preds = %if.then.i.i, %call.i.noexc.i, %entry
  ret void
}